target datalayout = "e-m:e-p270:32:32-p271:32:32-p272:64:64-i64:64-i128:128-f80:128-n8:16:32:64-S128"
target triple = "x86_64-pc-linux-gnu"

%class.QString = type { %struct.QArrayDataPointer }
%struct.QArrayDataPointer = type { ptr, ptr, i64 }
%class.QSharedPointer = type { ptr, ptr }
%class.RtpPlayerDialog = type { %class.RtpBaseDialog.base, ptr, ptr, ptr, double, double, double, double, double, double, ptr, ptr, %class.QString, %class.QSharedPointer, %class.QSharedPointer.1, i8, %class.QList.2, ptr, %class.QTimer, i64, i32, ptr, i8, ptr, ptr, ptr, ptr, ptr, %class.QMultiHash, i8, i32, i8, double, ptr, %class.QPoint }
%class.RtpBaseDialog.base = type { %class.WiresharkDialog.base }
%class.WiresharkDialog.base = type <{ %class.GeometryStateDialog, ptr, i8, [7 x i8], %class.QString, %class.QList, i32, i8 }>
%class.GeometryStateDialog = type { %class.QDialog, %class.QString, ptr }
%class.QDialog = type { %class.QWidget }
%class.QWidget = type { %class.QObject, %class.QPaintDevice.base, ptr }
%class.QObject = type { ptr, %class.QScopedPointer }
%class.QScopedPointer = type { ptr }
%class.QPaintDevice.base = type <{ ptr, i16 }>
%class.QList = type { %struct.QArrayDataPointer.0 }
%struct.QArrayDataPointer.0 = type { ptr, ptr, i64 }
%class.QSharedPointer.1 = type { ptr, ptr }
%class.QList.2 = type { %struct.QArrayDataPointer.5 }
%struct.QArrayDataPointer.5 = type { ptr, ptr, i64 }
%class.QTimer = type { %class.QObject }
%class.QMultiHash = type { ptr, i64 }
%class.QPoint = type { i32, i32 }
%class.Ui_RtpPlayerDialog = type { ptr, ptr, ptr, ptr, ptr, ptr, ptr, ptr, ptr, ptr, ptr, ptr, ptr, ptr, ptr, ptr, ptr, ptr, ptr, ptr, ptr, ptr, ptr, ptr, ptr, ptr, ptr, ptr, ptr, ptr, ptr, ptr, ptr, ptr, ptr, ptr, ptr, ptr, ptr, ptr, ptr, ptr, ptr, ptr, ptr, ptr, ptr, ptr, ptr, ptr, ptr, ptr, ptr, ptr, ptr, ptr, ptr, ptr, ptr, ptr, ptr, ptr, ptr, ptr, ptr, ptr, ptr, ptr }

; Function Attrs: inlinehint mustprogress nounwind null_pointer_is_valid sspstrong uwtable
define linkonce_odr noundef align 8 dereferenceable(8) ptr @_Z4qMaxIdERKT_S2_S2_(ptr noundef align 8 dereferenceable(8) %0, ptr noundef align 8 dereferenceable(8) %1) #7 comdat {
  %3 = alloca ptr, align 8
  %4 = alloca ptr, align 8
  store ptr %0, ptr %3, align 8
  store ptr %1, ptr %4, align 8
  %5 = load ptr, ptr %3, align 8
  %6 = load double, ptr %5, align 8
  %7 = load ptr, ptr %4, align 8
  %8 = load double, ptr %7, align 8
  %9 = fcmp olt double %6, %8
  br i1 %9, label %10, label %12

10:                                               ; preds = %2
  %11 = load ptr, ptr %4, align 8
  br label %14

12:                                               ; preds = %2
  %13 = load ptr, ptr %3, align 8
  br label %14

14:                                               ; preds = %12, %10
  %15 = phi ptr [ %11, %10 ], [ %13, %12 ]
  ret ptr %15
}

; Function Attrs: inlinehint mustprogress nounwind null_pointer_is_valid sspstrong uwtable
define linkonce_odr noundef align 8 dereferenceable(8) ptr @_Z4qMinIdERKT_S2_S2_(ptr noundef align 8 dereferenceable(8) %0, ptr noundef align 8 dereferenceable(8) %1) #7 comdat {
  %3 = alloca ptr, align 8
  %4 = alloca ptr, align 8
  store ptr %0, ptr %3, align 8
  store ptr %1, ptr %4, align 8
  %5 = load ptr, ptr %3, align 8
  %6 = load double, ptr %5, align 8
  %7 = load ptr, ptr %4, align 8
  %8 = load double, ptr %7, align 8
  %9 = fcmp olt double %6, %8
  br i1 %9, label %10, label %12

10:                                               ; preds = %2
  %11 = load ptr, ptr %3, align 8
  br label %14

12:                                               ; preds = %2
  %13 = load ptr, ptr %4, align 8
  br label %14

14:                                               ; preds = %12, %10
  %15 = phi ptr [ %11, %10 ], [ %13, %12 ]
  ret ptr %15
}

; Function Attrs: inlinehint mustprogress null_pointer_is_valid sspstrong uwtable
define linkonce_odr noundef align 8 dereferenceable(8) ptr @_Z6qBoundIdERKT_S2_S2_S2_(ptr noundef align 8 dereferenceable(8) %0, ptr noundef align 8 dereferenceable(8) %1, ptr noundef align 8 dereferenceable(8) %2) #8 comdat {
  %4 = alloca ptr, align 8
  %5 = alloca ptr, align 8
  %6 = alloca ptr, align 8
  store ptr %0, ptr %4, align 8
  store ptr %1, ptr %5, align 8
  store ptr %2, ptr %6, align 8
  %7 = load ptr, ptr %4, align 8
  %8 = load ptr, ptr %6, align 8
  %9 = load ptr, ptr %5, align 8
  %10 = call noundef align 8 dereferenceable(8) ptr @_Z4qMinIdERKT_S2_S2_(ptr noundef align 8 dereferenceable(8) %8, ptr noundef align 8 dereferenceable(8) %9)
  %11 = call noundef align 8 dereferenceable(8) ptr @_Z4qMaxIdERKT_S2_S2_(ptr noundef align 8 dereferenceable(8) %7, ptr noundef align 8 dereferenceable(8) %10)
  ret ptr %11
}

; Function Attrs: mustprogress null_pointer_is_valid sspstrong uwtable
define void @_ZN15RtpPlayerDialog18setStartPlayMarkerEd(ptr noundef align 8 dereferenceable_or_null(472) %0, double noundef %1) #0 align 2 {
  %3 = alloca ptr, align 8
  %4 = alloca double, align 8
  %5 = alloca double, align 8
  %6 = alloca double, align 8
  store ptr %0, ptr %3, align 8
  store double %1, ptr %4, align 8
  %7 = load ptr, ptr %3, align 8
  %8 = getelementptr inbounds nuw %class.RtpPlayerDialog, ptr %7, i32 0, i32 1
  %9 = load ptr, ptr %8, align 8
  %10 = getelementptr inbounds nuw %class.Ui_RtpPlayerDialog, ptr %9, i32 0, i32 65
  %11 = load ptr, ptr %10, align 8
  %12 = call noundef zeroext i1 @_ZNK15QAbstractButton9isCheckedEv(ptr noundef align 8 dereferenceable_or_null(40) %11)
  br i1 %12, label %13, label %27

13:                                               ; preds = %2
  %14 = getelementptr inbounds nuw %class.RtpPlayerDialog, ptr %7, i32 0, i32 5
  call void @llvm.lifetime.start.p0(i64 8, ptr %5) #26
  %15 = getelementptr inbounds nuw %class.RtpPlayerDialog, ptr %7, i32 0, i32 5
  %16 = load double, ptr %15, align 8
  %17 = getelementptr inbounds nuw %class.RtpPlayerDialog, ptr %7, i32 0, i32 7
  %18 = load double, ptr %17, align 8
  %19 = fadd double %16, %18
  store double %19, ptr %5, align 8
  %20 = call noundef align 8 dereferenceable(8) ptr @_Z6qBoundIdERKT_S2_S2_S2_(ptr noundef align 8 dereferenceable(8) %14, ptr noundef align 8 dereferenceable(8) %4, ptr noundef align 8 dereferenceable(8) %5)
  %21 = load double, ptr %20, align 8
  store double %21, ptr %4, align 8
  call void @llvm.lifetime.end.p0(i64 8, ptr %5) #26
  %22 = load double, ptr %4, align 8
  %23 = getelementptr inbounds nuw %class.RtpPlayerDialog, ptr %7, i32 0, i32 5
  %24 = load double, ptr %23, align 8
  %25 = fsub double %22, %24
  %26 = getelementptr inbounds nuw %class.RtpPlayerDialog, ptr %7, i32 0, i32 8
  store double %25, ptr %26, align 8
  br label %38

27:                                               ; preds = %2
  %28 = getelementptr inbounds nuw %class.RtpPlayerDialog, ptr %7, i32 0, i32 4
  call void @llvm.lifetime.start.p0(i64 8, ptr %6) #26
  %29 = getelementptr inbounds nuw %class.RtpPlayerDialog, ptr %7, i32 0, i32 4
  %30 = load double, ptr %29, align 8
  %31 = getelementptr inbounds nuw %class.RtpPlayerDialog, ptr %7, i32 0, i32 7
  %32 = load double, ptr %31, align 8
  %33 = fadd double %30, %32
  store double %33, ptr %6, align 8
  %34 = call noundef align 8 dereferenceable(8) ptr @_Z6qBoundIdERKT_S2_S2_S2_(ptr noundef align 8 dereferenceable(8) %28, ptr noundef align 8 dereferenceable(8) %4, ptr noundef align 8 dereferenceable(8) %6)
  %35 = load double, ptr %34, align 8
  store double %35, ptr %4, align 8
  call void @llvm.lifetime.end.p0(i64 8, ptr %6) #26
  %36 = load double, ptr %4, align 8
  %37 = getelementptr inbounds nuw %class.RtpPlayerDialog, ptr %7, i32 0, i32 8
  store double %36, ptr %37, align 8
  br label %38

38:                                               ; preds = %27, %13
  ret void
}