; Function Attrs: mustprogress null_pointer_is_valid sspstrong uwtable
define void @_ZN15RtpPlayerDialog18setStartPlayMarkerEd(ptr noundef align 8 captures(none) dereferenceable_or_null(472) initializes((200, 208)) %0, double noundef %1) local_unnamed_addr #0 align 2 {
  %3 = getelementptr inbounds nuw i8, ptr %0, i64 144
  %4 = load ptr, ptr %3, align 8
  %5 = getelementptr inbounds nuw i8, ptr %4, i64 520
  %6 = load ptr, ptr %5, align 8
  %7 = tail call noundef zeroext i1 @_ZNK15QAbstractButton9isCheckedEv(ptr noundef align 8 dereferenceable_or_null(40) %6)
  %8 = getelementptr inbounds nuw i8, ptr %0, i64 192
  %9 = load double, ptr %8, align 8
  br i1 %7, label %10, label %19

10:                                               ; preds = %2
  %11 = getelementptr inbounds nuw i8, ptr %0, i64 176
  %12 = load double, ptr %11, align 8
  %13 = fadd double %12, %9
  %14 = fcmp olt double %13, %1
  %15 = select i1 %14, double %13, double %1
  %16 = fcmp olt double %12, %15
  %17 = select i1 %16, double %15, double %12
  %18 = fsub double %17, %12
  br label %27

19:                                               ; preds = %2
  %20 = getelementptr inbounds nuw i8, ptr %0, i64 168
  %21 = load double, ptr %20, align 8
  %22 = fadd double %21, %9
  %23 = fcmp olt double %22, %1
  %24 = select i1 %23, double %22, double %1
  %25 = fcmp olt double %21, %24
  %26 = select i1 %25, double %24, double %21
  br label %27

27:                                               ; preds = %19, %10
  %.sink = phi double [ %18, %10 ], [ %26, %19 ]
  %28 = getelementptr inbounds nuw i8, ptr %0, i64 200
  store double %.sink, ptr %28, align 8
  ret void
}